target datalayout = "e-m:e-p270:32:32-p271:32:32-p272:64:64-i64:64-i128:128-f80:128-n8:16:32:64-S128"
target triple = "x86_64-unknown-linux-gnu"

%struct.acpi_scan_handler = type { ptr, %struct.list_head, ptr, ptr, ptr, ptr, ptr, %struct.acpi_hotplug_profile }
%struct.list_head = type { ptr, ptr }
%struct.acpi_hotplug_profile = type { %struct.kobject, ptr, ptr, i8 }
%struct.kobject = type { ptr, %struct.list_head, ptr, ptr, ptr, ptr, %struct.kref, i8 }
%struct.kref = type { %struct.refcount_struct }
%struct.refcount_struct = type { %struct.atomic_t }
%struct.atomic_t = type { i32 }
%struct.acpi_device_id = type { [16 x i8], i64, i32, i32 }

@apd_handler = internal global %struct.acpi_scan_handler { ptr @acpi_apd_device_ids, %struct.list_head zeroinitializer, ptr null, ptr @acpi_apd_create_device, ptr null, ptr null, ptr null, %struct.acpi_hotplug_profile zeroinitializer }, align 8
@acpi_apd_device_ids = internal constant [1 x %struct.acpi_device_id] zeroinitializer, align 16
@kmalloc_caches = external dso_local local_unnamed_addr global [3 x [14 x ptr]], align 16

; Function Attrs: cold fn_ret_thunk_extern nounwind null_pointer_is_valid optsize
define dso_local void @acpi_apd_init() local_unnamed_addr #0 section ".init.text" align 16 {
  %1 = tail call i32 @acpi_scan_add_handler(ptr noundef nonnull @apd_handler) #4
  ret void
}

; Function Attrs: null_pointer_is_valid
declare dso_local i32 @acpi_scan_add_handler(ptr noundef) local_unnamed_addr #1

; Function Attrs: fn_ret_thunk_extern nounwind null_pointer_is_valid
define internal i32 @acpi_apd_create_device(ptr noundef %0, ptr nocapture noundef readonly %1) #2 align 16 {
  %3 = getelementptr inbounds i8, ptr %1, i64 16
  %4 = load i64, ptr %3, align 8
  %5 = inttoptr i64 %4 to ptr
  %6 = icmp eq i64 %4, 0
  br i1 %6, label %7, label %15

7:                                                ; preds = %2
  %8 = tail call ptr @acpi_create_platform_device(ptr noundef %0, ptr noundef null) #4
  %9 = icmp eq ptr %8, null
  %10 = icmp ugt ptr %8, inttoptr (i64 -4096 to ptr)
  %11 = or i1 %9, %10
  br i1 %11, label %12, label %41

12:                                               ; preds = %7
  %13 = ptrtoint ptr %8 to i64
  %14 = trunc i64 %13 to i32
  br label %41

15:                                               ; preds = %2
  %16 = load ptr, ptr getelementptr inbounds ([3 x [14 x ptr]], ptr @kmalloc_caches, i64 0, i64 0, i64 5), align 8
  %17 = tail call noalias noundef align 8 dereferenceable_or_null(24) ptr @kmalloc_trace(ptr noundef %16, i32 noundef 3520, i64 noundef 24) #5
  %18 = icmp eq ptr %17, null
  br i1 %18, label %41, label %19

19:                                               ; preds = %15
  %20 = getelementptr inbounds i8, ptr %17, i64 8
  store ptr %0, ptr %20, align 8
  %21 = getelementptr inbounds i8, ptr %17, i64 16
  store ptr %5, ptr %21, align 8
  %22 = getelementptr inbounds i8, ptr %5, i64 16
  %23 = load ptr, ptr %22, align 8
  %24 = icmp eq ptr %23, null
  br i1 %24, label %28, label %25

25:                                               ; preds = %19
  %26 = tail call i32 %23(ptr noundef nonnull %17) #4
  %27 = icmp eq i32 %26, 0
  br i1 %27, label %28, label %39

28:                                               ; preds = %25, %19
  %29 = getelementptr inbounds i8, ptr %0, i64 608
  store ptr %17, ptr %29, align 8
  %30 = getelementptr inbounds i8, ptr %5, i64 8
  %31 = load ptr, ptr %30, align 8
  %32 = tail call ptr @acpi_create_platform_device(ptr noundef %0, ptr noundef %31) #4
  %33 = icmp eq ptr %32, null
  %34 = icmp ugt ptr %32, inttoptr (i64 -4096 to ptr)
  %35 = or i1 %33, %34
  br i1 %35, label %36, label %41

36:                                               ; preds = %28
  %37 = ptrtoint ptr %32 to i64
  %38 = trunc i64 %37 to i32
  store ptr null, ptr %29, align 8
  br label %39

39:                                               ; preds = %36, %25
  %40 = phi i32 [ %26, %25 ], [ %38, %36 ]
  tail call void @kfree(ptr noundef nonnull %17) #4
  br label %41

41:                                               ; preds = %39, %28, %15, %12, %7
  %42 = phi i32 [ %40, %39 ], [ %14, %12 ], [ 1, %7 ], [ -12, %15 ], [ 1, %28 ]
  ret i32 %42
}

; Function Attrs: null_pointer_is_valid
declare dso_local ptr @acpi_create_platform_device(ptr noundef, ptr noundef) local_unnamed_addr #1

; Function Attrs: null_pointer_is_valid
declare dso_local void @kfree(ptr noundef) local_unnamed_addr #1

; Function Attrs: null_pointer_is_valid allocsize(2)
declare dso_local noalias ptr @kmalloc_trace(ptr noundef, i32 noundef, i64 noundef) local_unnamed_addr #3


!llvm.module.flags = !{!0, !1, !2, !3, !4}

!0 = !{i32 1, !"wchar_size", i32 2}
!1 = !{i32 8, !"cf-protection-branch", i32 1}
!2 = !{i32 4, !"function_return_thunk_extern", i32 1}
!3 = !{i32 4, !"indirect_branch_cs_prefix", i32 1}
!4 = !{i32 4, !"SkipRaxSetup", i32 1}
